; Function Attrs: mustprogress nofree norecurse nosync nounwind willreturn memory(readwrite, argmem: write, inaccessiblemem: none) uwtable
define void @Abc_FrameSetBatchMode(i32 noundef %0) local_unnamed_addr #6 {
  %2 = load ptr, ptr @s_GlobalFrame, align 8, !tbaa !3
  %.not = icmp eq ptr %2, null
  br i1 %.not, label %5, label %3

3:                                                ; preds = %1
  %4 = getelementptr inbounds nuw i8, ptr %2, i64 92
  store i32 %0, ptr %4, align 4, !tbaa !71
  br label %5

5:                                                ; preds = %3, %1
  ret void
}